target datalayout = "e-m:e-p270:32:32-p271:32:32-p272:64:64-i64:64-i128:128-f80:128-n8:16:32:64-S128"
target triple = "x86_64-pc-linux-gnu"

%struct.AVRational = type { i32, i32 }
%struct.AVCodecContext = type { ptr, i32, i32, ptr, i32, i32, ptr, ptr, ptr, i64, i32, i32, ptr, i32, %struct.AVRational, %struct.AVRational, %struct.AVRational, i32, i32, i32, i32, i32, %struct.AVRational, i32, i32, i32, i32, i32, i32, i32, i32, i32, i32, i32, ptr, ptr, i32, float, float, float, float, float, float, float, float, float, i32, i32, i32, i32, i32, i32, i32, i32, i32, i32, i32, i32, ptr, ptr, ptr, i32, i32, i32, i32, i32, i32, i32, i32, i32, i32, %struct.AVChannelLayout, i32, i32, i32, i32, i32, i32, i32, i32, ptr, i32, i32, i32, float, float, i32, i32, i32, i32, i32, ptr, i64, i64, float, float, i32, i32, ptr, ptr, i32, i32, i32, i32, i32, ptr, ptr, ptr, ptr, i32, i32, [8 x i64], i32, i32, i32, i32, i32, i32, i32, ptr, ptr, i32, i32, i32, i32, i32, i32, i32, i32, i32, i32, ptr, ptr, i32, i32, ptr, ptr, ptr, ptr, i32, i32, i64, i32, i32, i64, ptr, i64, ptr, i32, ptr, i32 }
%struct.AVChannelLayout = type { i32, i32, %union.anon, ptr }
%union.anon = type { i64 }
%struct.AVCodecInternal = type { i32, i32, i32, ptr, ptr, ptr, ptr, ptr, ptr, ptr, i32, ptr, ptr, ptr, i32, i32, ptr, i32, ptr, ptr, i32, i32 }
%struct.DecodeContext = type { %struct.AVCodecInternal, i32, i32, i32, i32, i64, i64, i64, i64, i64, ptr, i32, i32, i32 }

; Function Attrs: inlinehint nounwind uwtable
define internal ptr @av_frame_side_data_get(ptr noundef %0, i32 noundef %1, i32 noundef %2) #7 {
  %4 = alloca ptr, align 8
  %5 = alloca i32, align 4
  %6 = alloca i32, align 4
  store ptr %0, ptr %4, align 8, !tbaa !305
  store i32 %1, ptr %5, align 4, !tbaa !41
  store i32 %2, ptr %6, align 4, !tbaa !41
  %7 = load ptr, ptr %4, align 8, !tbaa !305
  %8 = load i32, ptr %5, align 4, !tbaa !41
  %9 = load i32, ptr %6, align 4, !tbaa !41
  %10 = call ptr @av_frame_side_data_get_c(ptr noundef %7, i32 noundef %8, i32 noundef %9)
  ret ptr %10
}

; Function Attrs: nounwind uwtable
define internal ptr @decode_ctx(ptr noundef %0) #0 {
  %2 = alloca ptr, align 8
  store ptr %0, ptr %2, align 8, !tbaa !31
  %3 = load ptr, ptr %2, align 8, !tbaa !31
  ret ptr %3
}

; Function Attrs: nounwind uwtable
define internal i32 @side_data_pref(ptr noundef %0, ptr noundef %1, ptr noundef %2, i32 noundef %3) #0 {
  %5 = alloca i32, align 4
  %6 = alloca ptr, align 8
  %7 = alloca ptr, align 8
  %8 = alloca ptr, align 8
  %9 = alloca i32, align 4
  %10 = alloca ptr, align 8
  %11 = alloca i32, align 4
  store ptr %0, ptr %6, align 8, !tbaa !4
  store ptr %1, ptr %7, align 8, !tbaa !306
  store ptr %2, ptr %8, align 8, !tbaa !120
  store i32 %3, ptr %9, align 4, !tbaa !41
  call void @llvm.lifetime.start.p0(i64 8, ptr %10) #11
  %12 = load ptr, ptr %6, align 8, !tbaa !4
  %13 = getelementptr inbounds nuw %struct.AVCodecContext, ptr %12, i32 0, i32 7
  %14 = load ptr, ptr %13, align 8, !tbaa !11
  %15 = call ptr @decode_ctx(ptr noundef %14)
  store ptr %15, ptr %10, align 8, !tbaa !32
  %16 = load ptr, ptr %7, align 8, !tbaa !306
  %17 = load ptr, ptr %16, align 8, !tbaa !305
  %18 = load ptr, ptr %8, align 8, !tbaa !120
  %19 = load i32, ptr %18, align 4, !tbaa !41
  %20 = load i32, ptr %9, align 4, !tbaa !41
  %21 = call ptr @av_frame_side_data_get(ptr noundef %17, i32 noundef %19, i32 noundef %20)
  %22 = icmp ne ptr %21, null
  br i1 %22, label %23, label %37

23:                                               ; preds = %4
  %24 = load ptr, ptr %10, align 8, !tbaa !32
  %25 = getelementptr inbounds nuw %struct.DecodeContext, ptr %24, i32 0, i32 9
  %26 = load i64, ptr %25, align 8, !tbaa !293
  %27 = load i32, ptr %9, align 4, !tbaa !41
  %28 = zext i32 %27 to i64
  %29 = shl i64 1, %28
  %30 = and i64 %26, %29
  %31 = icmp ne i64 %30, 0
  br i1 %31, label %32, label %33

32:                                               ; preds = %23
  store i32 1, ptr %5, align 4
  store i32 1, ptr %11, align 4
  br label %38

33:                                               ; preds = %23
  %34 = load ptr, ptr %7, align 8, !tbaa !306
  %35 = load ptr, ptr %8, align 8, !tbaa !120
  %36 = load i32, ptr %9, align 4, !tbaa !41
  call void @av_frame_side_data_remove(ptr noundef %34, ptr noundef %35, i32 noundef %36)
  br label %37

37:                                               ; preds = %33, %4
  store i32 0, ptr %5, align 4
  store i32 1, ptr %11, align 4
  br label %38

38:                                               ; preds = %37, %32
  call void @llvm.lifetime.end.p0(i64 8, ptr %10) #11
  %39 = load i32, ptr %5, align 4
  ret i32 %39
}

; Function Attrs: nounwind uwtable
define i32 @ff_decode_content_light_new_ext(ptr noundef %0, ptr noundef %1, ptr noundef %2, ptr noundef %3) #0 {
  %5 = alloca i32, align 4
  %6 = alloca ptr, align 8
  %7 = alloca ptr, align 8
  %8 = alloca ptr, align 8
  %9 = alloca ptr, align 8
  %10 = alloca ptr, align 8
  %11 = alloca i64, align 8
  %12 = alloca i32, align 4
  store ptr %0, ptr %6, align 8, !tbaa !4
  store ptr %1, ptr %7, align 8, !tbaa !306
  store ptr %2, ptr %8, align 8, !tbaa !120
  store ptr %3, ptr %9, align 8, !tbaa !313
  call void @llvm.lifetime.start.p0(i64 8, ptr %10) #11
  call void @llvm.lifetime.start.p0(i64 8, ptr %11) #11
  %13 = load ptr, ptr %6, align 8, !tbaa !4
  %14 = load ptr, ptr %7, align 8, !tbaa !306
  %15 = load ptr, ptr %8, align 8, !tbaa !120
  %16 = call i32 @side_data_pref(ptr noundef %13, ptr noundef %14, ptr noundef %15, i32 noundef 14)
  %17 = icmp ne i32 %16, 0
  br i1 %17, label %18, label %20

18:                                               ; preds = %4
  %19 = load ptr, ptr %9, align 8, !tbaa !313
  store ptr null, ptr %19, align 8, !tbaa !315
  store i32 0, ptr %5, align 4
  store i32 1, ptr %12, align 4
  br label %44

20:                                               ; preds = %4
  %21 = call ptr @av_content_light_metadata_alloc(ptr noundef %11)
  %22 = load ptr, ptr %9, align 8, !tbaa !313
  store ptr %21, ptr %22, align 8, !tbaa !315
  %23 = load ptr, ptr %9, align 8, !tbaa !313
  %24 = load ptr, ptr %23, align 8, !tbaa !315
  %25 = icmp ne ptr %24, null
  br i1 %25, label %27, label %26

26:                                               ; preds = %20
  store i32 -12, ptr %5, align 4
  store i32 1, ptr %12, align 4
  br label %44

27:                                               ; preds = %20
  %28 = load ptr, ptr %9, align 8, !tbaa !313
  %29 = load ptr, ptr %28, align 8, !tbaa !315
  %30 = load i64, ptr %11, align 8, !tbaa !69
  %31 = call ptr @av_buffer_create(ptr noundef %29, i64 noundef %30, ptr noundef null, ptr noundef null, i32 noundef 0)
  store ptr %31, ptr %10, align 8, !tbaa !54
  %32 = load ptr, ptr %10, align 8, !tbaa !54
  %33 = icmp ne ptr %32, null
  br i1 %33, label %36, label %34

34:                                               ; preds = %27
  %35 = load ptr, ptr %9, align 8, !tbaa !313
  call void @av_freep(ptr noundef %35)
  store i32 -12, ptr %5, align 4
  store i32 1, ptr %12, align 4
  br label %44

36:                                               ; preds = %27
  %37 = load ptr, ptr %7, align 8, !tbaa !306
  %38 = load ptr, ptr %8, align 8, !tbaa !120
  %39 = call ptr @av_frame_side_data_add(ptr noundef %37, ptr noundef %38, i32 noundef 14, ptr noundef %10, i32 noundef 0)
  %40 = icmp ne ptr %39, null
  br i1 %40, label %43, label %41

41:                                               ; preds = %36
  %42 = load ptr, ptr %9, align 8, !tbaa !313
  store ptr null, ptr %42, align 8, !tbaa !315
  call void @av_buffer_unref(ptr noundef %10)
  store i32 -12, ptr %5, align 4
  store i32 1, ptr %12, align 4
  br label %44

43:                                               ; preds = %36
  store i32 0, ptr %5, align 4
  store i32 1, ptr %12, align 4
  br label %44

44:                                               ; preds = %43, %41, %34, %26, %18
  call void @llvm.lifetime.end.p0(i64 8, ptr %11) #11
  call void @llvm.lifetime.end.p0(i64 8, ptr %10) #11
  %45 = load i32, ptr %5, align 4
  ret i32 %45
}